; Function Attrs: mustprogress uwtable
define dso_local void @_ZN23btStridingMeshInterface23calculateAabbBruteForceER9btVector3S1_(ptr noundef nonnull align 8 dereferenceable(24) %this, ptr noundef nonnull align 4 dereferenceable(16) %aabbMin, ptr noundef nonnull align 4 dereferenceable(16) %aabbMax) local_unnamed_addr #3 align 2 personality ptr @__gxx_personality_v0 {
entry:
  %aabbCallback = alloca %struct.AabbCalculationCallback, align 8
  store ptr getelementptr inbounds ({ [5 x ptr] }, ptr @_ZTVZN23btStridingMeshInterface23calculateAabbBruteForceER9btVector3S1_E23AabbCalculationCallback, i64 0, i32 0, i64 2), ptr %aabbCallback, align 8
  %m_aabbMin.i = getelementptr inbounds i8, ptr %aabbCallback, i64 8
  %m_aabbMax.i = getelementptr inbounds i8, ptr %aabbCallback, i64 24
  store <4 x float> <float 0x43ABC16D60000000, float 0x43ABC16D60000000, float 0x43ABC16D60000000, float 0.000000e+00>, ptr %m_aabbMin.i, align 8
  store <4 x float> <float 0xC3ABC16D60000000, float 0xC3ABC16D60000000, float 0xC3ABC16D60000000, float 0.000000e+00>, ptr %m_aabbMax.i, align 8
  store <4 x float> <float 0xC3ABC16D60000000, float 0xC3ABC16D60000000, float 0xC3ABC16D60000000, float 0.000000e+00>, ptr %aabbMin, align 4
  store <4 x float> <float 0x43ABC16D60000000, float 0x43ABC16D60000000, float 0x43ABC16D60000000, float 0.000000e+00>, ptr %aabbMax, align 4
  %vtable = load ptr, ptr %this, align 8
  %vfn = getelementptr inbounds i8, ptr %vtable, i64 16
  %0 = load ptr, ptr %vfn, align 8
  invoke void %0(ptr noundef nonnull align 8 dereferenceable(24) %this, ptr noundef nonnull %aabbCallback, ptr noundef nonnull align 4 dereferenceable(16) %aabbMin, ptr noundef nonnull align 4 dereferenceable(16) %aabbMax)
          to label %invoke.cont8 unwind label %lpad

invoke.cont8:                                     ; preds = %entry
  call void @llvm.memcpy.p0.p0.i64(ptr noundef nonnull align 4 dereferenceable(16) %aabbMin, ptr noundef nonnull align 8 dereferenceable(16) %m_aabbMin.i, i64 16, i1 false)
  call void @llvm.memcpy.p0.p0.i64(ptr noundef nonnull align 4 dereferenceable(16) %aabbMax, ptr noundef nonnull align 8 dereferenceable(16) %m_aabbMax.i, i64 16, i1 false)
  call void @_ZN31btInternalTriangleIndexCallbackD2Ev(ptr noundef nonnull align 8 dereferenceable(8) %aabbCallback) #11
  ret void

lpad:                                             ; preds = %entry
  %1 = landingpad { ptr, i32 }
          cleanup
  call void @_ZN31btInternalTriangleIndexCallbackD2Ev(ptr noundef nonnull align 8 dereferenceable(8) %aabbCallback) #11
  resume { ptr, i32 } %1
}